target datalayout = "e-m:e-p270:32:32-p271:32:32-p272:64:64-i64:64-i128:128-f80:128-n8:16:32:64-S128"
target triple = "x86_64-pc-linux-gnu"

%struct.shape_functions = type { ptr, ptr, ptr, ptr, ptr, ptr }
%struct.pointf_s = type { double, double }
%struct.Agobj_s = type { %struct.Agtag_s, ptr }
%struct.Agtag_s = type { i32, i64 }
%struct.Agnodeinfo_t = type { %struct.Agrec_s, ptr, ptr, %struct.pointf_s, double, double, %struct.boxf, double, double, double, double, double, ptr, ptr, ptr, i8, i8, i8, i8, i32, i32, i32, ptr, double, i8, i8, ptr, ptr, i8, i64, i8, i8, i8, ptr, ptr, %struct.elist, %struct.elist, %struct.elist, %struct.elist, %struct.elist, ptr, i32, ptr, i32, i32, double, %struct.elist, %struct.elist, %struct.elist, %struct.elist, ptr, i32, i32, i32, [1 x double] }
%struct.Agrec_s = type { ptr, ptr }
%struct.boxf = type { %struct.pointf_s, %struct.pointf_s }
%struct.elist = type { ptr, i64 }
%struct.shape_desc = type { ptr, ptr, ptr, i8 }
%struct.Agraphinfo_t = type { %struct.Agrec_s, ptr, ptr, %struct.boxf, [4 x %struct.pointf_s], i8, i8, i8, i8, i32, double, double, i16, ptr, ptr, ptr, ptr, i32, ptr, ptr, ptr, ptr, i16, i16, i32, ptr, ptr, ptr, ptr, ptr, i32, ptr, ptr, %struct.nlist_t, ptr, ptr, i32, i32, i8, i8, i32, i32, i32, ptr, ptr, ptr, ptr, i8, i8, i8, i8, i8 }
%struct.nlist_t = type { ptr, i64 }
%struct.anon.3 = type { ptr, ptr, ptr, double, ptr, i64, i64, double, double, double, double }

; Function Attrs: nounwind uwtable
define internal { double, double } @compassPoint(ptr noundef %0, double noundef %1, double noundef %2) #0 {
  %4 = alloca %struct.pointf_s, align 8
  %5 = alloca ptr, align 8
  %6 = alloca double, align 8
  %7 = alloca double, align 8
  %8 = alloca [4 x %struct.pointf_s], align 16
  %9 = alloca ptr, align 8
  %10 = alloca ptr, align 8
  %11 = alloca i32, align 4
  %12 = alloca %struct.pointf_s, align 8
  %13 = alloca %struct.pointf_s, align 8
  %14 = alloca %struct.pointf_s, align 8
  store ptr %0, ptr %5, align 8, !tbaa !157
  store double %1, ptr %6, align 8, !tbaa !17
  store double %2, ptr %7, align 8, !tbaa !17
  call void @llvm.lifetime.start.p0(i64 64, ptr %8) #13
  call void @llvm.lifetime.start.p0(i64 8, ptr %9) #13
  %15 = load ptr, ptr %5, align 8, !tbaa !157
  %16 = getelementptr inbounds nuw %struct.anon.3, ptr %15, i32 0, i32 0
  %17 = load ptr, ptr %16, align 8, !tbaa !98
  store ptr %17, ptr %9, align 8, !tbaa !35
  call void @llvm.lifetime.start.p0(i64 8, ptr %10) #13
  %18 = load ptr, ptr %9, align 8, !tbaa !35
  %19 = call ptr @agraphof(ptr noundef %18)
  store ptr %19, ptr %10, align 8, !tbaa !249
  call void @llvm.lifetime.start.p0(i64 4, ptr %11) #13
  %20 = load ptr, ptr %10, align 8, !tbaa !249
  %21 = getelementptr inbounds nuw %struct.Agobj_s, ptr %20, i32 0, i32 1
  %22 = load ptr, ptr %21, align 8, !tbaa !37
  %23 = getelementptr inbounds nuw %struct.Agraphinfo_t, ptr %22, i32 0, i32 9
  %24 = load i32, ptr %23, align 4, !tbaa !118
  %25 = and i32 %24, 3
  store i32 %25, ptr %11, align 4, !tbaa !12
  call void @llvm.lifetime.start.p0(i64 16, ptr %12) #13
  %26 = load double, ptr %7, align 8, !tbaa !17
  %27 = getelementptr inbounds nuw %struct.pointf_s, ptr %12, i32 0, i32 0
  store double %26, ptr %27, align 8, !tbaa !21
  %28 = load double, ptr %6, align 8, !tbaa !17
  %29 = getelementptr inbounds nuw %struct.pointf_s, ptr %12, i32 0, i32 1
  store double %28, ptr %29, align 8, !tbaa !23
  %30 = load i32, ptr %11, align 4, !tbaa !12
  %31 = icmp ne i32 %30, 0
  br i1 %31, label %32, label %44

32:                                               ; preds = %3
  call void @llvm.lifetime.start.p0(i64 16, ptr %13) #13
  %33 = load i32, ptr %11, align 4, !tbaa !12
  %34 = mul nsw i32 90, %33
  %35 = getelementptr inbounds nuw { double, double }, ptr %12, i32 0, i32 0
  %36 = load double, ptr %35, align 8
  %37 = getelementptr inbounds nuw { double, double }, ptr %12, i32 0, i32 1
  %38 = load double, ptr %37, align 8
  %39 = call { double, double } @cwrotatepf(double %36, double %38, i32 noundef %34)
  %40 = getelementptr inbounds nuw { double, double }, ptr %13, i32 0, i32 0
  %41 = extractvalue { double, double } %39, 0
  store double %41, ptr %40, align 8
  %42 = getelementptr inbounds nuw { double, double }, ptr %13, i32 0, i32 1
  %43 = extractvalue { double, double } %39, 1
  store double %43, ptr %42, align 8
  call void @llvm.memcpy.p0.p0.i64(ptr align 8 %12, ptr align 8 %13, i64 16, i1 false), !tbaa.struct !16
  call void @llvm.lifetime.end.p0(i64 16, ptr %13) #13
  br label %44

44:                                               ; preds = %32, %3
  %45 = getelementptr inbounds [4 x %struct.pointf_s], ptr %8, i64 0, i64 0
  %46 = getelementptr inbounds nuw %struct.pointf_s, ptr %45, i32 0, i32 1
  store double 0.000000e+00, ptr %46, align 8, !tbaa !23
  %47 = getelementptr inbounds [4 x %struct.pointf_s], ptr %8, i64 0, i64 0
  %48 = getelementptr inbounds nuw %struct.pointf_s, ptr %47, i32 0, i32 0
  store double 0.000000e+00, ptr %48, align 16, !tbaa !21
  %49 = getelementptr inbounds [4 x %struct.pointf_s], ptr %8, i64 0, i64 1
  %50 = getelementptr inbounds [4 x %struct.pointf_s], ptr %8, i64 0, i64 0
  call void @llvm.memcpy.p0.p0.i64(ptr align 16 %49, ptr align 16 %50, i64 16, i1 false), !tbaa.struct !16
  %51 = getelementptr inbounds [4 x %struct.pointf_s], ptr %8, i64 0, i64 3
  %52 = getelementptr inbounds [4 x %struct.pointf_s], ptr %8, i64 0, i64 2
  call void @llvm.memcpy.p0.p0.i64(ptr align 16 %52, ptr align 8 %12, i64 16, i1 false), !tbaa.struct !16
  call void @llvm.memcpy.p0.p0.i64(ptr align 16 %51, ptr align 16 %52, i64 16, i1 false), !tbaa.struct !16
  %53 = load ptr, ptr %5, align 8, !tbaa !157
  %54 = load ptr, ptr %9, align 8, !tbaa !35
  %55 = getelementptr inbounds nuw %struct.Agobj_s, ptr %54, i32 0, i32 1
  %56 = load ptr, ptr %55, align 8, !tbaa !37
  %57 = getelementptr inbounds nuw %struct.Agnodeinfo_t, ptr %56, i32 0, i32 1
  %58 = load ptr, ptr %57, align 8, !tbaa !41
  %59 = getelementptr inbounds nuw %struct.shape_desc, ptr %58, i32 0, i32 1
  %60 = load ptr, ptr %59, align 8, !tbaa !54
  %61 = getelementptr inbounds nuw %struct.shape_functions, ptr %60, i32 0, i32 3
  %62 = load ptr, ptr %61, align 8, !tbaa !250
  %63 = getelementptr inbounds [4 x %struct.pointf_s], ptr %8, i64 0, i64 0
  call void @bezier_clip(ptr noundef %53, ptr noundef %62, ptr noundef %63, i1 noundef zeroext true)
  %64 = load i32, ptr %11, align 4, !tbaa !12
  %65 = icmp ne i32 %64, 0
  br i1 %65, label %66, label %80

66:                                               ; preds = %44
  %67 = getelementptr inbounds [4 x %struct.pointf_s], ptr %8, i64 0, i64 0
  call void @llvm.lifetime.start.p0(i64 16, ptr %14) #13
  %68 = getelementptr inbounds [4 x %struct.pointf_s], ptr %8, i64 0, i64 0
  %69 = load i32, ptr %11, align 4, !tbaa !12
  %70 = mul nsw i32 90, %69
  %71 = getelementptr inbounds nuw { double, double }, ptr %68, i32 0, i32 0
  %72 = load double, ptr %71, align 16
  %73 = getelementptr inbounds nuw { double, double }, ptr %68, i32 0, i32 1
  %74 = load double, ptr %73, align 8
  %75 = call { double, double } @ccwrotatepf(double %72, double %74, i32 noundef %70)
  %76 = getelementptr inbounds nuw { double, double }, ptr %14, i32 0, i32 0
  %77 = extractvalue { double, double } %75, 0
  store double %77, ptr %76, align 8
  %78 = getelementptr inbounds nuw { double, double }, ptr %14, i32 0, i32 1
  %79 = extractvalue { double, double } %75, 1
  store double %79, ptr %78, align 8
  call void @llvm.memcpy.p0.p0.i64(ptr align 16 %67, ptr align 8 %14, i64 16, i1 false), !tbaa.struct !16
  call void @llvm.lifetime.end.p0(i64 16, ptr %14) #13
  br label %80

80:                                               ; preds = %66, %44
  %81 = getelementptr inbounds [4 x %struct.pointf_s], ptr %8, i64 0, i64 0
  call void @llvm.memcpy.p0.p0.i64(ptr align 8 %4, ptr align 16 %81, i64 16, i1 false), !tbaa.struct !16
  call void @llvm.lifetime.end.p0(i64 16, ptr %12) #13
  call void @llvm.lifetime.end.p0(i64 4, ptr %11) #13
  call void @llvm.lifetime.end.p0(i64 8, ptr %10) #13
  call void @llvm.lifetime.end.p0(i64 8, ptr %9) #13
  call void @llvm.lifetime.end.p0(i64 64, ptr %8) #13
  %82 = load { double, double }, ptr %4, align 8
  ret { double, double } %82
}