; Function Attrs: nounwind uwtable
define internal fastcc { double, double } @compassPoint(ptr noundef nonnull %0, double noundef %1, double noundef %2) unnamed_addr #0 {
  %4 = alloca [4 x %struct.pointf_s], align 16
  call void @llvm.lifetime.start.p0(i64 64, ptr nonnull %4) #26
  %5 = load ptr, ptr %0, align 8, !tbaa !81
  %6 = tail call ptr @agraphof(ptr noundef %5) #26
  %7 = getelementptr inbounds nuw i8, ptr %6, i64 16
  %8 = load ptr, ptr %7, align 8, !tbaa !21
  %9 = getelementptr inbounds nuw i8, ptr %8, i64 132
  %10 = load i32, ptr %9, align 4, !tbaa !101
  %11 = and i32 %10, 3
  %.not = icmp eq i32 %11, 0
  br i1 %.not, label %17, label %12

12:                                               ; preds = %3
  %13 = mul nuw nsw i32 %11, 90
  %14 = tail call { double, double } @cwrotatepf(double %2, double %1, i32 noundef %13) #26
  %15 = extractvalue { double, double } %14, 0
  %16 = extractvalue { double, double } %14, 1
  br label %17

17:                                               ; preds = %12, %3
  %.sroa.03.0 = phi double [ %15, %12 ], [ %2, %3 ]
  %.sroa.6.0 = phi double [ %16, %12 ], [ %1, %3 ]
  %18 = getelementptr inbounds nuw i8, ptr %4, i64 8
  %19 = getelementptr inbounds nuw i8, ptr %4, i64 48
  %20 = getelementptr inbounds nuw i8, ptr %4, i64 32
  call void @llvm.memset.p0.i64(ptr noundef nonnull align 16 dereferenceable(32) %4, i8 0, i64 32, i1 false)
  store double %.sroa.03.0, ptr %20, align 16, !tbaa !4
  %.sroa.6.0..sroa_idx = getelementptr inbounds nuw i8, ptr %4, i64 40
  store double %.sroa.6.0, ptr %.sroa.6.0..sroa_idx, align 8, !tbaa !4
  call void @llvm.memcpy.p0.p0.i64(ptr noundef nonnull align 16 dereferenceable(16) %19, ptr noundef nonnull align 16 dereferenceable(16) %20, i64 16, i1 false), !tbaa.struct !3
  %21 = getelementptr inbounds nuw i8, ptr %5, i64 16
  %22 = load ptr, ptr %21, align 8, !tbaa !21
  %23 = getelementptr inbounds nuw i8, ptr %22, i64 16
  %24 = load ptr, ptr %23, align 8, !tbaa !26
  %25 = getelementptr inbounds nuw i8, ptr %24, i64 8
  %26 = load ptr, ptr %25, align 8, !tbaa !40
  %27 = getelementptr inbounds nuw i8, ptr %26, i64 24
  %28 = load ptr, ptr %27, align 8, !tbaa !226
  call void @bezier_clip(ptr noundef nonnull %0, ptr noundef %28, ptr noundef nonnull %4, i1 noundef zeroext true) #26
  %.sroa.013.0.copyload.pre = load double, ptr %4, align 16, !tbaa !4
  %.sroa.2.0.copyload.pre = load double, ptr %18, align 8, !tbaa !4
  br i1 %.not, label %34, label %29

29:                                               ; preds = %17
  %30 = mul nuw nsw i32 %11, 90
  %31 = call { double, double } @ccwrotatepf(double %.sroa.013.0.copyload.pre, double %.sroa.2.0.copyload.pre, i32 noundef %30) #26
  %32 = extractvalue { double, double } %31, 0
  %33 = extractvalue { double, double } %31, 1
  br label %34

34:                                               ; preds = %29, %17
  %.sroa.2.0.copyload = phi double [ %33, %29 ], [ %.sroa.2.0.copyload.pre, %17 ]
  %.sroa.013.0.copyload = phi double [ %32, %29 ], [ %.sroa.013.0.copyload.pre, %17 ]
  call void @llvm.lifetime.end.p0(i64 64, ptr nonnull %4) #26
  %.fca.0.insert = insertvalue { double, double } poison, double %.sroa.013.0.copyload, 0
  %.fca.1.insert = insertvalue { double, double } %.fca.0.insert, double %.sroa.2.0.copyload, 1
  ret { double, double } %.fca.1.insert
}